target datalayout = "e-m:e-p270:32:32-p271:32:32-p272:64:64-i64:64-i128:128-f80:128-n8:16:32:64-S128"
target triple = "x86_64-pc-linux-gnu"

%struct.dist_data = type { i64, ptr, ptr, i8 }

; Function Attrs: nounwind uwtable
define internal double @compute_stress1(ptr noundef %0, ptr noundef %1, i32 noundef %2, i32 noundef %3, i32 noundef %4) #0 {
  %6 = alloca ptr, align 8
  %7 = alloca ptr, align 8
  %8 = alloca i32, align 4
  %9 = alloca i32, align 4
  %10 = alloca i32, align 4
  %11 = alloca i32, align 4
  %12 = alloca i32, align 4
  %13 = alloca i32, align 4
  %14 = alloca double, align 8
  %15 = alloca double, align 8
  %16 = alloca double, align 8
  %17 = alloca i64, align 8
  %18 = alloca i64, align 8
  store ptr %0, ptr %6, align 8, !tbaa !7
  store ptr %1, ptr %7, align 8, !tbaa !42
  store i32 %2, ptr %8, align 4, !tbaa !3
  store i32 %3, ptr %9, align 4, !tbaa !3
  store i32 %4, ptr %10, align 4, !tbaa !3
  call void @llvm.lifetime.start.p0(i64 4, ptr %11) #10
  call void @llvm.lifetime.start.p0(i64 4, ptr %12) #10
  call void @llvm.lifetime.start.p0(i64 4, ptr %13) #10
  call void @llvm.lifetime.start.p0(i64 8, ptr %14) #10
  call void @llvm.lifetime.start.p0(i64 8, ptr %15) #10
  call void @llvm.lifetime.start.p0(i64 8, ptr %16) #10
  store double 0.000000e+00, ptr %14, align 8, !tbaa !36
  %19 = load i32, ptr %10, align 4, !tbaa !3
  %20 = icmp eq i32 %19, 2
  br i1 %20, label %21, label %134

21:                                               ; preds = %5
  store i32 0, ptr %11, align 4, !tbaa !3
  br label %22

22:                                               ; preds = %130, %21
  %23 = load i32, ptr %11, align 4, !tbaa !3
  %24 = load i32, ptr %9, align 4, !tbaa !3
  %25 = icmp slt i32 %23, %24
  br i1 %25, label %26, label %133

26:                                               ; preds = %22
  call void @llvm.lifetime.start.p0(i64 8, ptr %17) #10
  store i64 0, ptr %17, align 8, !tbaa !48
  br label %27

27:                                               ; preds = %126, %26
  %28 = load i64, ptr %17, align 8, !tbaa !48
  %29 = load ptr, ptr %7, align 8, !tbaa !42
  %30 = load i32, ptr %11, align 4, !tbaa !3
  %31 = sext i32 %30 to i64
  %32 = getelementptr inbounds %struct.dist_data, ptr %29, i64 %31
  %33 = getelementptr inbounds nuw %struct.dist_data, ptr %32, i32 0, i32 0
  %34 = load i64, ptr %33, align 8, !tbaa !121
  %35 = icmp ult i64 %28, %34
  br i1 %35, label %37, label %36

36:                                               ; preds = %27
  call void @llvm.lifetime.end.p0(i64 8, ptr %17) #10
  br label %129

37:                                               ; preds = %27
  %38 = load ptr, ptr %7, align 8, !tbaa !42
  %39 = load i32, ptr %11, align 4, !tbaa !3
  %40 = sext i32 %39 to i64
  %41 = getelementptr inbounds %struct.dist_data, ptr %38, i64 %40
  %42 = getelementptr inbounds nuw %struct.dist_data, ptr %41, i32 0, i32 1
  %43 = load ptr, ptr %42, align 8, !tbaa !118
  %44 = load i64, ptr %17, align 8, !tbaa !48
  %45 = getelementptr inbounds nuw i32, ptr %43, i64 %44
  %46 = load i32, ptr %45, align 4, !tbaa !3
  store i32 %46, ptr %13, align 4, !tbaa !3
  %47 = load i32, ptr %13, align 4, !tbaa !3
  %48 = load i32, ptr %11, align 4, !tbaa !3
  %49 = icmp sle i32 %47, %48
  br i1 %49, label %50, label %51

50:                                               ; preds = %37
  br label %126

51:                                               ; preds = %37
  store double 0.000000e+00, ptr %15, align 8, !tbaa !36
  store i32 0, ptr %12, align 4, !tbaa !3
  br label %52

52:                                               ; preds = %97, %51
  %53 = load i32, ptr %12, align 4, !tbaa !3
  %54 = load i32, ptr %8, align 4, !tbaa !3
  %55 = icmp slt i32 %53, %54
  br i1 %55, label %56, label %100

56:                                               ; preds = %52
  %57 = load ptr, ptr %6, align 8, !tbaa !7
  %58 = load i32, ptr %12, align 4, !tbaa !3
  %59 = sext i32 %58 to i64
  %60 = getelementptr inbounds ptr, ptr %57, i64 %59
  %61 = load ptr, ptr %60, align 8, !tbaa !12
  %62 = load i32, ptr %11, align 4, !tbaa !3
  %63 = sext i32 %62 to i64
  %64 = getelementptr inbounds double, ptr %61, i64 %63
  %65 = load double, ptr %64, align 8, !tbaa !36
  %66 = load ptr, ptr %6, align 8, !tbaa !7
  %67 = load i32, ptr %12, align 4, !tbaa !3
  %68 = sext i32 %67 to i64
  %69 = getelementptr inbounds ptr, ptr %66, i64 %68
  %70 = load ptr, ptr %69, align 8, !tbaa !12
  %71 = load i32, ptr %13, align 4, !tbaa !3
  %72 = sext i32 %71 to i64
  %73 = getelementptr inbounds double, ptr %70, i64 %72
  %74 = load double, ptr %73, align 8, !tbaa !36
  %75 = fsub double %65, %74
  %76 = load ptr, ptr %6, align 8, !tbaa !7
  %77 = load i32, ptr %12, align 4, !tbaa !3
  %78 = sext i32 %77 to i64
  %79 = getelementptr inbounds ptr, ptr %76, i64 %78
  %80 = load ptr, ptr %79, align 8, !tbaa !12
  %81 = load i32, ptr %11, align 4, !tbaa !3
  %82 = sext i32 %81 to i64
  %83 = getelementptr inbounds double, ptr %80, i64 %82
  %84 = load double, ptr %83, align 8, !tbaa !36
  %85 = load ptr, ptr %6, align 8, !tbaa !7
  %86 = load i32, ptr %12, align 4, !tbaa !3
  %87 = sext i32 %86 to i64
  %88 = getelementptr inbounds ptr, ptr %85, i64 %87
  %89 = load ptr, ptr %88, align 8, !tbaa !12
  %90 = load i32, ptr %13, align 4, !tbaa !3
  %91 = sext i32 %90 to i64
  %92 = getelementptr inbounds double, ptr %89, i64 %91
  %93 = load double, ptr %92, align 8, !tbaa !36
  %94 = fsub double %84, %93
  %95 = load double, ptr %15, align 8, !tbaa !36
  %96 = call double @llvm.fmuladd.f64(double %75, double %94, double %95)
  store double %96, ptr %15, align 8, !tbaa !36
  br label %97

97:                                               ; preds = %56
  %98 = load i32, ptr %12, align 4, !tbaa !3
  %99 = add nsw i32 %98, 1
  store i32 %99, ptr %12, align 4, !tbaa !3
  br label %52, !llvm.loop !147

100:                                              ; preds = %52
  %101 = load double, ptr %15, align 8, !tbaa !36
  %102 = call double @sqrt(double noundef %101) #10, !tbaa !3
  store double %102, ptr %15, align 8, !tbaa !36
  %103 = load ptr, ptr %7, align 8, !tbaa !42
  %104 = load i32, ptr %11, align 4, !tbaa !3
  %105 = sext i32 %104 to i64
  %106 = getelementptr inbounds %struct.dist_data, ptr %103, i64 %105
  %107 = getelementptr inbounds nuw %struct.dist_data, ptr %106, i32 0, i32 2
  %108 = load ptr, ptr %107, align 8, !tbaa !120
  %109 = load i64, ptr %17, align 8, !tbaa !48
  %110 = getelementptr inbounds nuw i32, ptr %108, i64 %109
  %111 = load i32, ptr %110, align 4, !tbaa !3
  %112 = sitofp i32 %111 to double
  store double %112, ptr %16, align 8, !tbaa !36
  %113 = load double, ptr %16, align 8, !tbaa !36
  %114 = load double, ptr %15, align 8, !tbaa !36
  %115 = fsub double %113, %114
  %116 = load double, ptr %16, align 8, !tbaa !36
  %117 = load double, ptr %15, align 8, !tbaa !36
  %118 = fsub double %116, %117
  %119 = fmul double %115, %118
  %120 = load double, ptr %16, align 8, !tbaa !36
  %121 = load double, ptr %16, align 8, !tbaa !36
  %122 = fmul double %120, %121
  %123 = fdiv double %119, %122
  %124 = load double, ptr %14, align 8, !tbaa !36
  %125 = fadd double %124, %123
  store double %125, ptr %14, align 8, !tbaa !36
  br label %126

126:                                              ; preds = %100, %50
  %127 = load i64, ptr %17, align 8, !tbaa !48
  %128 = add i64 %127, 1
  store i64 %128, ptr %17, align 8, !tbaa !48
  br label %27, !llvm.loop !148

129:                                              ; preds = %36
  br label %130

130:                                              ; preds = %129
  %131 = load i32, ptr %11, align 4, !tbaa !3
  %132 = add nsw i32 %131, 1
  store i32 %132, ptr %11, align 4, !tbaa !3
  br label %22, !llvm.loop !149

133:                                              ; preds = %22
  br label %245

134:                                              ; preds = %5
  store i32 0, ptr %11, align 4, !tbaa !3
  br label %135

135:                                              ; preds = %241, %134
  %136 = load i32, ptr %11, align 4, !tbaa !3
  %137 = load i32, ptr %9, align 4, !tbaa !3
  %138 = icmp slt i32 %136, %137
  br i1 %138, label %139, label %244

139:                                              ; preds = %135
  call void @llvm.lifetime.start.p0(i64 8, ptr %18) #10
  store i64 0, ptr %18, align 8, !tbaa !48
  br label %140

140:                                              ; preds = %237, %139
  %141 = load i64, ptr %18, align 8, !tbaa !48
  %142 = load ptr, ptr %7, align 8, !tbaa !42
  %143 = load i32, ptr %11, align 4, !tbaa !3
  %144 = sext i32 %143 to i64
  %145 = getelementptr inbounds %struct.dist_data, ptr %142, i64 %144
  %146 = getelementptr inbounds nuw %struct.dist_data, ptr %145, i32 0, i32 0
  %147 = load i64, ptr %146, align 8, !tbaa !121
  %148 = icmp ult i64 %141, %147
  br i1 %148, label %150, label %149

149:                                              ; preds = %140
  call void @llvm.lifetime.end.p0(i64 8, ptr %18) #10
  br label %240

150:                                              ; preds = %140
  %151 = load ptr, ptr %7, align 8, !tbaa !42
  %152 = load i32, ptr %11, align 4, !tbaa !3
  %153 = sext i32 %152 to i64
  %154 = getelementptr inbounds %struct.dist_data, ptr %151, i64 %153
  %155 = getelementptr inbounds nuw %struct.dist_data, ptr %154, i32 0, i32 1
  %156 = load ptr, ptr %155, align 8, !tbaa !118
  %157 = load i64, ptr %18, align 8, !tbaa !48
  %158 = getelementptr inbounds nuw i32, ptr %156, i64 %157
  %159 = load i32, ptr %158, align 4, !tbaa !3
  store i32 %159, ptr %13, align 4, !tbaa !3
  %160 = load i32, ptr %13, align 4, !tbaa !3
  %161 = load i32, ptr %11, align 4, !tbaa !3
  %162 = icmp sle i32 %160, %161
  br i1 %162, label %163, label %164

163:                                              ; preds = %150
  br label %237

164:                                              ; preds = %150
  store double 0.000000e+00, ptr %15, align 8, !tbaa !36
  store i32 0, ptr %12, align 4, !tbaa !3
  br label %165

165:                                              ; preds = %210, %164
  %166 = load i32, ptr %12, align 4, !tbaa !3
  %167 = load i32, ptr %8, align 4, !tbaa !3
  %168 = icmp slt i32 %166, %167
  br i1 %168, label %169, label %213

169:                                              ; preds = %165
  %170 = load ptr, ptr %6, align 8, !tbaa !7
  %171 = load i32, ptr %12, align 4, !tbaa !3
  %172 = sext i32 %171 to i64
  %173 = getelementptr inbounds ptr, ptr %170, i64 %172
  %174 = load ptr, ptr %173, align 8, !tbaa !12
  %175 = load i32, ptr %11, align 4, !tbaa !3
  %176 = sext i32 %175 to i64
  %177 = getelementptr inbounds double, ptr %174, i64 %176
  %178 = load double, ptr %177, align 8, !tbaa !36
  %179 = load ptr, ptr %6, align 8, !tbaa !7
  %180 = load i32, ptr %12, align 4, !tbaa !3
  %181 = sext i32 %180 to i64
  %182 = getelementptr inbounds ptr, ptr %179, i64 %181
  %183 = load ptr, ptr %182, align 8, !tbaa !12
  %184 = load i32, ptr %13, align 4, !tbaa !3
  %185 = sext i32 %184 to i64
  %186 = getelementptr inbounds double, ptr %183, i64 %185
  %187 = load double, ptr %186, align 8, !tbaa !36
  %188 = fsub double %178, %187
  %189 = load ptr, ptr %6, align 8, !tbaa !7
  %190 = load i32, ptr %12, align 4, !tbaa !3
  %191 = sext i32 %190 to i64
  %192 = getelementptr inbounds ptr, ptr %189, i64 %191
  %193 = load ptr, ptr %192, align 8, !tbaa !12
  %194 = load i32, ptr %11, align 4, !tbaa !3
  %195 = sext i32 %194 to i64
  %196 = getelementptr inbounds double, ptr %193, i64 %195
  %197 = load double, ptr %196, align 8, !tbaa !36
  %198 = load ptr, ptr %6, align 8, !tbaa !7
  %199 = load i32, ptr %12, align 4, !tbaa !3
  %200 = sext i32 %199 to i64
  %201 = getelementptr inbounds ptr, ptr %198, i64 %200
  %202 = load ptr, ptr %201, align 8, !tbaa !12
  %203 = load i32, ptr %13, align 4, !tbaa !3
  %204 = sext i32 %203 to i64
  %205 = getelementptr inbounds double, ptr %202, i64 %204
  %206 = load double, ptr %205, align 8, !tbaa !36
  %207 = fsub double %197, %206
  %208 = load double, ptr %15, align 8, !tbaa !36
  %209 = call double @llvm.fmuladd.f64(double %188, double %207, double %208)
  store double %209, ptr %15, align 8, !tbaa !36
  br label %210

210:                                              ; preds = %169
  %211 = load i32, ptr %12, align 4, !tbaa !3
  %212 = add nsw i32 %211, 1
  store i32 %212, ptr %12, align 4, !tbaa !3
  br label %165, !llvm.loop !150

213:                                              ; preds = %165
  %214 = load double, ptr %15, align 8, !tbaa !36
  %215 = call double @sqrt(double noundef %214) #10, !tbaa !3
  store double %215, ptr %15, align 8, !tbaa !36
  %216 = load ptr, ptr %7, align 8, !tbaa !42
  %217 = load i32, ptr %11, align 4, !tbaa !3
  %218 = sext i32 %217 to i64
  %219 = getelementptr inbounds %struct.dist_data, ptr %216, i64 %218
  %220 = getelementptr inbounds nuw %struct.dist_data, ptr %219, i32 0, i32 2
  %221 = load ptr, ptr %220, align 8, !tbaa !120
  %222 = load i64, ptr %18, align 8, !tbaa !48
  %223 = getelementptr inbounds nuw i32, ptr %221, i64 %222
  %224 = load i32, ptr %223, align 4, !tbaa !3
  %225 = sitofp i32 %224 to double
  store double %225, ptr %16, align 8, !tbaa !36
  %226 = load double, ptr %16, align 8, !tbaa !36
  %227 = load double, ptr %15, align 8, !tbaa !36
  %228 = fsub double %226, %227
  %229 = load double, ptr %16, align 8, !tbaa !36
  %230 = load double, ptr %15, align 8, !tbaa !36
  %231 = fsub double %229, %230
  %232 = fmul double %228, %231
  %233 = load double, ptr %16, align 8, !tbaa !36
  %234 = fdiv double %232, %233
  %235 = load double, ptr %14, align 8, !tbaa !36
  %236 = fadd double %235, %234
  store double %236, ptr %14, align 8, !tbaa !36
  br label %237

237:                                              ; preds = %213, %163
  %238 = load i64, ptr %18, align 8, !tbaa !48
  %239 = add i64 %238, 1
  store i64 %239, ptr %18, align 8, !tbaa !48
  br label %140, !llvm.loop !151

240:                                              ; preds = %149
  br label %241

241:                                              ; preds = %240
  %242 = load i32, ptr %11, align 4, !tbaa !3
  %243 = add nsw i32 %242, 1
  store i32 %243, ptr %11, align 4, !tbaa !3
  br label %135, !llvm.loop !152

244:                                              ; preds = %135
  br label %245

245:                                              ; preds = %244, %133
  %246 = load double, ptr %14, align 8, !tbaa !36
  call void @llvm.lifetime.end.p0(i64 8, ptr %16) #10
  call void @llvm.lifetime.end.p0(i64 8, ptr %15) #10
  call void @llvm.lifetime.end.p0(i64 8, ptr %14) #10
  call void @llvm.lifetime.end.p0(i64 4, ptr %13) #10
  call void @llvm.lifetime.end.p0(i64 4, ptr %12) #10
  call void @llvm.lifetime.end.p0(i64 4, ptr %11) #10
  ret double %246
}