; Function Attrs: nofree nounwind memory(readwrite, inaccessiblemem: write) uwtable
define internal fastcc double @compute_stress1(ptr noundef readonly captures(none) %0, ptr noundef readonly captures(none) %1, i32 noundef %2, i32 noundef range(i32 2, -2147483648) %3, i32 noundef range(i32 0, 4) %4) unnamed_addr #8 {
  %6 = icmp eq i32 %4, 2
  %7 = icmp sgt i32 %2, 0
  %wide.trip.count155 = zext nneg i32 %3 to i64
  br i1 %6, label %.preheader90, label %.preheader93

.preheader93:                                     ; preds = %5
  br i1 %7, label %.preheader92.us.preheader, label %.preheader92

.preheader92.us.preheader:                        ; preds = %.preheader93
  %wide.trip.count132 = zext nneg i32 %2 to i64
  br label %.preheader92.us

.preheader92.us:                                  ; preds = %.preheader92.us.preheader, %._crit_edge100.split.us.us
  %indvars.iv135 = phi i64 [ 0, %.preheader92.us.preheader ], [ %indvars.iv.next136, %._crit_edge100.split.us.us ]
  %.4104.us = phi double [ 0.000000e+00, %.preheader92.us.preheader ], [ %.5.lcssa.us, %._crit_edge100.split.us.us ]
  %8 = getelementptr inbounds nuw %struct.dist_data, ptr %1, i64 %indvars.iv135
  %9 = load i64, ptr %8, align 8, !tbaa !77
  %.not120 = icmp eq i64 %9, 0
  br i1 %.not120, label %._crit_edge100.split.us.us, label %.lr.ph99.us

._crit_edge100.split.us.us:                       ; preds = %17, %.preheader92.us
  %.5.lcssa.us = phi double [ %.4104.us, %.preheader92.us ], [ %.6.us.us, %17 ]
  %indvars.iv.next136 = add nuw nsw i64 %indvars.iv135, 1
  %exitcond139.not = icmp eq i64 %indvars.iv.next136, %wide.trip.count155
  br i1 %exitcond139.not, label %.loopexit, label %.preheader92.us, !llvm.loop !130

.lr.ph99.us:                                      ; preds = %.preheader92.us
  %10 = getelementptr inbounds nuw i8, ptr %8, i64 8
  %11 = load ptr, ptr %10, align 8, !tbaa !74
  %12 = getelementptr inbounds nuw i8, ptr %8, i64 16
  br label %13

13:                                               ; preds = %17, %.lr.ph99.us
  %.098.us.us = phi i64 [ 0, %.lr.ph99.us ], [ %18, %17 ]
  %.597.us.us = phi double [ %.4104.us, %.lr.ph99.us ], [ %.6.us.us, %17 ]
  %14 = getelementptr inbounds nuw i32, ptr %11, i64 %.098.us.us
  %15 = load i32, ptr %14, align 4, !tbaa !46
  %16 = sext i32 %15 to i64
  %.not.us.us = icmp slt i64 %indvars.iv135, %16
  br i1 %.not.us.us, label %.preheader91.us.us, label %17

17:                                               ; preds = %._crit_edge.us.us, %13
  %.6.us.us = phi double [ %.597.us.us, %13 ], [ %35, %._crit_edge.us.us ]
  %18 = add nuw i64 %.098.us.us, 1
  %exitcond134.not = icmp eq i64 %18, %9
  br i1 %exitcond134.not, label %._crit_edge100.split.us.us, label %13, !llvm.loop !131

.preheader91.us.us:                               ; preds = %13, %.preheader91.us.us
  %indvars.iv129 = phi i64 [ %indvars.iv.next130, %.preheader91.us.us ], [ 0, %13 ]
  %.196.us.us = phi double [ %26, %.preheader91.us.us ], [ 0.000000e+00, %13 ]
  %19 = getelementptr inbounds nuw ptr, ptr %0, i64 %indvars.iv129
  %20 = load ptr, ptr %19, align 8, !tbaa !3
  %21 = getelementptr inbounds nuw double, ptr %20, i64 %indvars.iv135
  %22 = load double, ptr %21, align 8, !tbaa !31
  %23 = getelementptr inbounds double, ptr %20, i64 %16
  %24 = load double, ptr %23, align 8, !tbaa !31
  %25 = fsub double %22, %24
  %26 = tail call double @llvm.fmuladd.f64(double %25, double %25, double %.196.us.us)
  %indvars.iv.next130 = add nuw nsw i64 %indvars.iv129, 1
  %exitcond133.not = icmp eq i64 %indvars.iv.next130, %wide.trip.count132
  br i1 %exitcond133.not, label %._crit_edge.us.us, label %.preheader91.us.us, !llvm.loop !132

._crit_edge.us.us:                                ; preds = %.preheader91.us.us
  %27 = tail call double @sqrt(double noundef %26) #16, !tbaa !46
  %28 = load ptr, ptr %12, align 8, !tbaa !76
  %29 = getelementptr inbounds nuw i32, ptr %28, i64 %.098.us.us
  %30 = load i32, ptr %29, align 4, !tbaa !46
  %31 = sitofp i32 %30 to double
  %32 = fsub double %31, %27
  %33 = fmul double %32, %32
  %34 = fdiv double %33, %31
  %35 = fadd double %.597.us.us, %34
  br label %17

.preheader90:                                     ; preds = %5
  br i1 %7, label %.preheader89.us.preheader, label %.preheader89

.preheader89.us.preheader:                        ; preds = %.preheader90
  %wide.trip.count149 = zext nneg i32 %2 to i64
  br label %.preheader89.us

.preheader89.us:                                  ; preds = %.preheader89.us.preheader, %._crit_edge111.split.us.us
  %indvars.iv152 = phi i64 [ 0, %.preheader89.us.preheader ], [ %indvars.iv.next153, %._crit_edge111.split.us.us ]
  %.080115.us = phi double [ 0.000000e+00, %.preheader89.us.preheader ], [ %.181.lcssa.us, %._crit_edge111.split.us.us ]
  %36 = getelementptr inbounds nuw %struct.dist_data, ptr %1, i64 %indvars.iv152
  %37 = load i64, ptr %36, align 8, !tbaa !77
  %.not122 = icmp eq i64 %37, 0
  br i1 %.not122, label %._crit_edge111.split.us.us, label %.lr.ph110.us

._crit_edge111.split.us.us:                       ; preds = %45, %.preheader89.us
  %.181.lcssa.us = phi double [ %.080115.us, %.preheader89.us ], [ %.2.us.us, %45 ]
  %indvars.iv.next153 = add nuw nsw i64 %indvars.iv152, 1
  %exitcond156.not = icmp eq i64 %indvars.iv.next153, %wide.trip.count155
  br i1 %exitcond156.not, label %.loopexit, label %.preheader89.us, !llvm.loop !133

.lr.ph110.us:                                     ; preds = %.preheader89.us
  %38 = getelementptr inbounds nuw i8, ptr %36, i64 8
  %39 = load ptr, ptr %38, align 8, !tbaa !74
  %40 = getelementptr inbounds nuw i8, ptr %36, i64 16
  br label %41

41:                                               ; preds = %45, %.lr.ph110.us
  %.078109.us.us = phi i64 [ 0, %.lr.ph110.us ], [ %46, %45 ]
  %.181108.us.us = phi double [ %.080115.us, %.lr.ph110.us ], [ %.2.us.us, %45 ]
  %42 = getelementptr inbounds nuw i32, ptr %39, i64 %.078109.us.us
  %43 = load i32, ptr %42, align 4, !tbaa !46
  %44 = sext i32 %43 to i64
  %.not88.us.us = icmp slt i64 %indvars.iv152, %44
  br i1 %.not88.us.us, label %.preheader.us.us, label %45

45:                                               ; preds = %._crit_edge.us.us116, %41
  %.2.us.us = phi double [ %.181108.us.us, %41 ], [ %64, %._crit_edge.us.us116 ]
  %46 = add nuw i64 %.078109.us.us, 1
  %exitcond151.not = icmp eq i64 %46, %37
  br i1 %exitcond151.not, label %._crit_edge111.split.us.us, label %41, !llvm.loop !134

.preheader.us.us:                                 ; preds = %41, %.preheader.us.us
  %indvars.iv146 = phi i64 [ %indvars.iv.next147, %.preheader.us.us ], [ 0, %41 ]
  %.079107.us.us = phi double [ %54, %.preheader.us.us ], [ 0.000000e+00, %41 ]
  %47 = getelementptr inbounds nuw ptr, ptr %0, i64 %indvars.iv146
  %48 = load ptr, ptr %47, align 8, !tbaa !3
  %49 = getelementptr inbounds nuw double, ptr %48, i64 %indvars.iv152
  %50 = load double, ptr %49, align 8, !tbaa !31
  %51 = getelementptr inbounds double, ptr %48, i64 %44
  %52 = load double, ptr %51, align 8, !tbaa !31
  %53 = fsub double %50, %52
  %54 = tail call double @llvm.fmuladd.f64(double %53, double %53, double %.079107.us.us)
  %indvars.iv.next147 = add nuw nsw i64 %indvars.iv146, 1
  %exitcond150.not = icmp eq i64 %indvars.iv.next147, %wide.trip.count149
  br i1 %exitcond150.not, label %._crit_edge.us.us116, label %.preheader.us.us, !llvm.loop !135

._crit_edge.us.us116:                             ; preds = %.preheader.us.us
  %55 = tail call double @sqrt(double noundef %54) #16, !tbaa !46
  %56 = load ptr, ptr %40, align 8, !tbaa !76
  %57 = getelementptr inbounds nuw i32, ptr %56, i64 %.078109.us.us
  %58 = load i32, ptr %57, align 4, !tbaa !46
  %59 = sitofp i32 %58 to double
  %60 = fsub double %59, %55
  %61 = fmul double %60, %60
  %62 = fmul double %59, %59
  %63 = fdiv double %61, %62
  %64 = fadd double %.181108.us.us, %63
  br label %45

.preheader89:                                     ; preds = %.preheader90, %._crit_edge111.split
  %indvars.iv141 = phi i64 [ %indvars.iv.next142, %._crit_edge111.split ], [ 0, %.preheader90 ]
  %.080115 = phi double [ %.181.lcssa, %._crit_edge111.split ], [ 0.000000e+00, %.preheader90 ]
  %65 = getelementptr inbounds nuw %struct.dist_data, ptr %1, i64 %indvars.iv141
  %66 = load i64, ptr %65, align 8, !tbaa !77
  %.not121 = icmp eq i64 %66, 0
  br i1 %.not121, label %._crit_edge111.split, label %.lr.ph110

.lr.ph110:                                        ; preds = %.preheader89
  %67 = getelementptr inbounds nuw i8, ptr %65, i64 8
  %68 = load ptr, ptr %67, align 8, !tbaa !74
  %69 = getelementptr inbounds nuw i8, ptr %65, i64 16
  br label %70

._crit_edge111.split:                             ; preds = %81, %.preheader89
  %.181.lcssa = phi double [ %.080115, %.preheader89 ], [ %.2, %81 ]
  %indvars.iv.next142 = add nuw nsw i64 %indvars.iv141, 1
  %exitcond145.not = icmp eq i64 %indvars.iv.next142, %wide.trip.count155
  br i1 %exitcond145.not, label %.loopexit, label %.preheader89, !llvm.loop !133

70:                                               ; preds = %.lr.ph110, %81
  %.078109 = phi i64 [ 0, %.lr.ph110 ], [ %82, %81 ]
  %.181108 = phi double [ %.080115, %.lr.ph110 ], [ %.2, %81 ]
  %71 = getelementptr inbounds nuw i32, ptr %68, i64 %.078109
  %72 = load i32, ptr %71, align 4, !tbaa !46
  %73 = sext i32 %72 to i64
  %.not88 = icmp slt i64 %indvars.iv141, %73
  br i1 %.not88, label %.preheader, label %81

.preheader:                                       ; preds = %70
  %74 = load ptr, ptr %69, align 8, !tbaa !76
  %75 = getelementptr inbounds nuw i32, ptr %74, i64 %.078109
  %76 = load i32, ptr %75, align 4, !tbaa !46
  %77 = sitofp i32 %76 to double
  %78 = fmul double %77, %77
  %79 = fdiv double %78, %78
  %80 = fadd double %.181108, %79
  br label %81

81:                                               ; preds = %70, %.preheader
  %.2 = phi double [ %.181108, %70 ], [ %80, %.preheader ]
  %82 = add nuw i64 %.078109, 1
  %exitcond140.not = icmp eq i64 %82, %66
  br i1 %exitcond140.not, label %._crit_edge111.split, label %70, !llvm.loop !134

.preheader92:                                     ; preds = %.preheader93, %._crit_edge100.split
  %indvars.iv = phi i64 [ %indvars.iv.next, %._crit_edge100.split ], [ 0, %.preheader93 ]
  %.4104 = phi double [ %.5.lcssa, %._crit_edge100.split ], [ 0.000000e+00, %.preheader93 ]
  %83 = getelementptr inbounds nuw %struct.dist_data, ptr %1, i64 %indvars.iv
  %84 = load i64, ptr %83, align 8, !tbaa !77
  %.not119 = icmp eq i64 %84, 0
  br i1 %.not119, label %._crit_edge100.split, label %.lr.ph99

.lr.ph99:                                         ; preds = %.preheader92
  %85 = getelementptr inbounds nuw i8, ptr %83, i64 8
  %86 = load ptr, ptr %85, align 8, !tbaa !74
  %87 = getelementptr inbounds nuw i8, ptr %83, i64 16
  br label %88

._crit_edge100.split:                             ; preds = %99, %.preheader92
  %.5.lcssa = phi double [ %.4104, %.preheader92 ], [ %.6, %99 ]
  %indvars.iv.next = add nuw nsw i64 %indvars.iv, 1
  %exitcond128.not = icmp eq i64 %indvars.iv.next, %wide.trip.count155
  br i1 %exitcond128.not, label %.loopexit, label %.preheader92, !llvm.loop !130

88:                                               ; preds = %.lr.ph99, %99
  %.098 = phi i64 [ 0, %.lr.ph99 ], [ %100, %99 ]
  %.597 = phi double [ %.4104, %.lr.ph99 ], [ %.6, %99 ]
  %89 = getelementptr inbounds nuw i32, ptr %86, i64 %.098
  %90 = load i32, ptr %89, align 4, !tbaa !46
  %91 = sext i32 %90 to i64
  %.not = icmp slt i64 %indvars.iv, %91
  br i1 %.not, label %.preheader91, label %99

.preheader91:                                     ; preds = %88
  %92 = load ptr, ptr %87, align 8, !tbaa !76
  %93 = getelementptr inbounds nuw i32, ptr %92, i64 %.098
  %94 = load i32, ptr %93, align 4, !tbaa !46
  %95 = sitofp i32 %94 to double
  %96 = fmul double %95, %95
  %97 = fdiv double %96, %95
  %98 = fadd double %.597, %97
  br label %99

99:                                               ; preds = %88, %.preheader91
  %.6 = phi double [ %.597, %88 ], [ %98, %.preheader91 ]
  %100 = add nuw i64 %.098, 1
  %exitcond.not = icmp eq i64 %100, %84
  br i1 %exitcond.not, label %._crit_edge100.split, label %88, !llvm.loop !131

.loopexit:                                        ; preds = %._crit_edge100.split, %._crit_edge100.split.us.us, %._crit_edge111.split, %._crit_edge111.split.us.us
  %.3 = phi double [ %.181.lcssa.us, %._crit_edge111.split.us.us ], [ %.181.lcssa, %._crit_edge111.split ], [ %.5.lcssa.us, %._crit_edge100.split.us.us ], [ %.5.lcssa, %._crit_edge100.split ]
  ret double %.3
}